target datalayout = "e-m:e-p270:32:32-p271:32:32-p272:64:64-i64:64-i128:128-f80:128-n8:16:32:64-S128"
target triple = "x86_64-pc-linux-gnu"

%struct.saucy = type { i32, ptr, ptr, ptr, ptr, %struct.coloring, %struct.coloring, ptr, ptr, ptr, ptr, ptr, i32, i32, ptr, i32, ptr, ptr, ptr, ptr, ptr, ptr, ptr, i32, i32, ptr, i32, ptr, i32, i32, ptr, ptr, ptr, ptr, ptr, ptr, ptr, ptr, ptr, ptr, i32, ptr, ptr, ptr, i32, ptr, i32, ptr, ptr, ptr, ptr, i32, ptr, ptr, i32, ptr, ptr, ptr, ptr, ptr, ptr, ptr, ptr, ptr, ptr, ptr, ptr, ptr, ptr, ptr, ptr, ptr, ptr, ptr, ptr, ptr, ptr, double, i32, i32, i32, ptr, ptr, ptr, ptr }
%struct.coloring = type { ptr, ptr, ptr, ptr }

; Function Attrs: nounwind uwtable
define internal void @select_statically(ptr noundef %0, ptr noundef %1, ptr noundef %2, ptr noundef %3) #0 {
  %5 = alloca ptr, align 8
  %6 = alloca ptr, align 8
  %7 = alloca ptr, align 8
  %8 = alloca ptr, align 8
  %9 = alloca i32, align 4
  store ptr %0, ptr %5, align 8
  store ptr %1, ptr %6, align 8
  store ptr %2, ptr %7, align 8
  store ptr %3, ptr %8, align 8
  %10 = load ptr, ptr %5, align 8
  %11 = getelementptr inbounds %struct.saucy, ptr %10, i32 0, i32 5
  %12 = getelementptr inbounds %struct.coloring, ptr %11, i32 0, i32 2
  %13 = load ptr, ptr %12, align 8
  %14 = load ptr, ptr %5, align 8
  %15 = getelementptr inbounds %struct.saucy, ptr %14, i32 0, i32 36
  %16 = load ptr, ptr %15, align 8
  %17 = load ptr, ptr %5, align 8
  %18 = getelementptr inbounds %struct.saucy, ptr %17, i32 0, i32 23
  %19 = load i32, ptr %18, align 8
  %20 = sext i32 %19 to i64
  %21 = getelementptr inbounds i32, ptr %16, i64 %20
  %22 = load i32, ptr %21, align 4
  %23 = sext i32 %22 to i64
  %24 = getelementptr inbounds i32, ptr %13, i64 %23
  %25 = load i32, ptr %24, align 4
  %26 = load ptr, ptr %8, align 8
  store i32 %25, ptr %26, align 4
  %27 = load ptr, ptr %6, align 8
  store i32 %25, ptr %27, align 4
  %28 = load ptr, ptr %5, align 8
  %29 = getelementptr inbounds %struct.saucy, ptr %28, i32 0, i32 5
  %30 = getelementptr inbounds %struct.coloring, ptr %29, i32 0, i32 1
  %31 = load ptr, ptr %30, align 8
  %32 = load ptr, ptr %5, align 8
  %33 = getelementptr inbounds %struct.saucy, ptr %32, i32 0, i32 36
  %34 = load ptr, ptr %33, align 8
  %35 = load ptr, ptr %5, align 8
  %36 = getelementptr inbounds %struct.saucy, ptr %35, i32 0, i32 23
  %37 = load i32, ptr %36, align 8
  %38 = sext i32 %37 to i64
  %39 = getelementptr inbounds i32, ptr %34, i64 %38
  %40 = load i32, ptr %39, align 4
  %41 = sext i32 %40 to i64
  %42 = getelementptr inbounds i32, ptr %31, i64 %41
  %43 = load i32, ptr %42, align 4
  %44 = load ptr, ptr %7, align 8
  store i32 %43, ptr %44, align 4
  %45 = load ptr, ptr %8, align 8
  %46 = load i32, ptr %45, align 4
  store i32 %46, ptr %9, align 4
  br label %47

47:                                               ; preds = %86, %4
  %48 = load i32, ptr %9, align 4
  %49 = load ptr, ptr %8, align 8
  %50 = load i32, ptr %49, align 4
  %51 = load ptr, ptr %5, align 8
  %52 = getelementptr inbounds %struct.saucy, ptr %51, i32 0, i32 6
  %53 = getelementptr inbounds %struct.coloring, ptr %52, i32 0, i32 3
  %54 = load ptr, ptr %53, align 8
  %55 = load ptr, ptr %6, align 8
  %56 = load i32, ptr %55, align 4
  %57 = sext i32 %56 to i64
  %58 = getelementptr inbounds i32, ptr %54, i64 %57
  %59 = load i32, ptr %58, align 4
  %60 = add nsw i32 %50, %59
  %61 = icmp sle i32 %48, %60
  br i1 %61, label %62, label %89

62:                                               ; preds = %47
  %63 = load ptr, ptr %5, align 8
  %64 = getelementptr inbounds %struct.saucy, ptr %63, i32 0, i32 6
  %65 = getelementptr inbounds %struct.coloring, ptr %64, i32 0, i32 0
  %66 = load ptr, ptr %65, align 8
  %67 = load ptr, ptr %8, align 8
  %68 = load i32, ptr %67, align 4
  %69 = sext i32 %68 to i64
  %70 = getelementptr inbounds i32, ptr %66, i64 %69
  %71 = load i32, ptr %70, align 4
  %72 = load ptr, ptr %5, align 8
  %73 = getelementptr inbounds %struct.saucy, ptr %72, i32 0, i32 5
  %74 = getelementptr inbounds %struct.coloring, ptr %73, i32 0, i32 0
  %75 = load ptr, ptr %74, align 8
  %76 = load ptr, ptr %7, align 8
  %77 = load i32, ptr %76, align 4
  %78 = sext i32 %77 to i64
  %79 = getelementptr inbounds i32, ptr %75, i64 %78
  %80 = load i32, ptr %79, align 4
  %81 = icmp eq i32 %71, %80
  br i1 %81, label %82, label %85

82:                                               ; preds = %62
  %83 = load i32, ptr %9, align 4
  %84 = load ptr, ptr %8, align 8
  store i32 %83, ptr %84, align 4
  br label %89

85:                                               ; preds = %62
  br label %86

86:                                               ; preds = %85
  %87 = load i32, ptr %9, align 4
  %88 = add nsw i32 %87, 1
  store i32 %88, ptr %9, align 4
  br label %47, !llvm.loop !48

89:                                               ; preds = %82, %47
  ret void
}